target datalayout = "e-m:e-p270:32:32-p271:32:32-p272:64:64-i64:64-i128:128-f80:128-n8:16:32:64-S128"
target triple = "x86_64-pc-linux-gnu"

%struct.opj_codec_private = type { %union.anon, ptr, %struct.opj_event_mgr, i32, ptr, ptr, ptr, ptr }
%union.anon = type { %struct.opj_decompression }
%struct.opj_decompression = type { ptr, ptr, ptr, ptr, ptr, ptr, ptr, ptr, ptr, ptr, ptr, ptr }
%struct.opj_event_mgr = type { ptr, ptr, ptr, ptr, ptr, ptr }

@.str.3 = private unnamed_addr constant [79 x i8] c"Codec provided to the opj_read_header function is not a decompressor handler.\0A\00", align 1

; Function Attrs: nounwind uwtable
define hidden i32 @opj_read_header(ptr noundef %0, ptr noundef %1, ptr noundef %2) #0 {
  %4 = alloca i32, align 4
  %5 = alloca ptr, align 8
  %6 = alloca ptr, align 8
  %7 = alloca ptr, align 8
  %8 = alloca ptr, align 8
  %9 = alloca ptr, align 8
  %10 = alloca i32, align 4
  store ptr %0, ptr %5, align 8, !tbaa !3
  store ptr %1, ptr %6, align 8, !tbaa !3
  store ptr %2, ptr %7, align 8, !tbaa !36
  %11 = load ptr, ptr %6, align 8, !tbaa !3
  %12 = icmp ne ptr %11, null
  br i1 %12, label %13, label %41

13:                                               ; preds = %3
  %14 = load ptr, ptr %5, align 8, !tbaa !3
  %15 = icmp ne ptr %14, null
  br i1 %15, label %16, label %41

16:                                               ; preds = %13
  call void @llvm.lifetime.start.p0(i64 8, ptr %8) #5
  %17 = load ptr, ptr %6, align 8, !tbaa !3
  store ptr %17, ptr %8, align 8, !tbaa !9
  call void @llvm.lifetime.start.p0(i64 8, ptr %9) #5
  %18 = load ptr, ptr %5, align 8, !tbaa !3
  store ptr %18, ptr %9, align 8, !tbaa !38
  %19 = load ptr, ptr %8, align 8, !tbaa !9
  %20 = getelementptr inbounds nuw %struct.opj_codec_private, ptr %19, i32 0, i32 3
  %21 = load i32, ptr %20, align 8, !tbaa !21
  %22 = icmp ne i32 %21, 0
  br i1 %22, label %27, label %23

23:                                               ; preds = %16
  %24 = load ptr, ptr %8, align 8, !tbaa !9
  %25 = getelementptr inbounds nuw %struct.opj_codec_private, ptr %24, i32 0, i32 2
  %26 = call i32 (ptr, i32, ptr, ...) @opj_event_msg(ptr noundef %25, i32 noundef 1, ptr noundef @.str.3)
  store i32 0, ptr %4, align 4
  store i32 1, ptr %10, align 4
  br label %40

27:                                               ; preds = %16
  %28 = load ptr, ptr %8, align 8, !tbaa !9
  %29 = getelementptr inbounds nuw %struct.opj_codec_private, ptr %28, i32 0, i32 0
  %30 = getelementptr inbounds nuw %struct.opj_decompression, ptr %29, i32 0, i32 0
  %31 = load ptr, ptr %30, align 8, !tbaa !25
  %32 = load ptr, ptr %9, align 8, !tbaa !38
  %33 = load ptr, ptr %8, align 8, !tbaa !9
  %34 = getelementptr inbounds nuw %struct.opj_codec_private, ptr %33, i32 0, i32 1
  %35 = load ptr, ptr %34, align 8, !tbaa !27
  %36 = load ptr, ptr %7, align 8, !tbaa !36
  %37 = load ptr, ptr %8, align 8, !tbaa !9
  %38 = getelementptr inbounds nuw %struct.opj_codec_private, ptr %37, i32 0, i32 2
  %39 = call i32 %31(ptr noundef %32, ptr noundef %35, ptr noundef %36, ptr noundef %38)
  store i32 %39, ptr %4, align 4
  store i32 1, ptr %10, align 4
  br label %40

40:                                               ; preds = %27, %23
  call void @llvm.lifetime.end.p0(i64 8, ptr %9) #5
  call void @llvm.lifetime.end.p0(i64 8, ptr %8) #5
  br label %42

41:                                               ; preds = %13, %3
  store i32 0, ptr %4, align 4
  br label %42

42:                                               ; preds = %41, %40
  %43 = load i32, ptr %4, align 4
  ret i32 %43
}