; Function Attrs: nounwind uwtable
define hidden i32 @opj_read_header(ptr noundef %0, ptr noundef %1, ptr noundef %2) local_unnamed_addr #2 {
  %4 = icmp ne ptr %1, null
  %5 = icmp ne ptr %0, null
  %or.cond = and i1 %5, %4
  br i1 %or.cond, label %6, label %18

6:                                                ; preds = %3
  %7 = getelementptr inbounds nuw i8, ptr %1, i64 152
  %8 = load i32, ptr %7, align 8, !tbaa !15
  %.not = icmp eq i32 %8, 0
  br i1 %.not, label %9, label %12

9:                                                ; preds = %6
  %10 = getelementptr inbounds nuw i8, ptr %1, i64 104
  %11 = tail call i32 (ptr, i32, ptr, ...) @opj_event_msg(ptr noundef nonnull %10, i32 noundef 1, ptr noundef nonnull @.str.3) #8
  br label %18

12:                                               ; preds = %6
  %13 = load ptr, ptr %1, align 8, !tbaa !19
  %14 = getelementptr inbounds nuw i8, ptr %1, i64 96
  %15 = load ptr, ptr %14, align 8, !tbaa !21
  %16 = getelementptr inbounds nuw i8, ptr %1, i64 104
  %17 = tail call i32 %13(ptr noundef nonnull %0, ptr noundef %15, ptr noundef %2, ptr noundef nonnull %16) #8
  br label %18

18:                                               ; preds = %3, %9, %12
  %.1 = phi i32 [ %17, %12 ], [ 0, %9 ], [ 0, %3 ]
  ret i32 %.1
}